target datalayout = "e-m:e-p270:32:32-p271:32:32-p272:64:64-i64:64-i128:128-f80:128-n8:16:32:64-S128"
target triple = "x86_64-unknown-linux-gnu"

; Function Attrs: mustprogress uwtable
define void @uspoof_setAllowedLocales_75(ptr noundef %sc, ptr noundef %localesList, ptr noundef %status) #0 {
entry:
  %sc.addr = alloca ptr, align 8
  %localesList.addr = alloca ptr, align 8
  %status.addr = alloca ptr, align 8
  %This = alloca ptr, align 8
  store ptr %sc, ptr %sc.addr, align 8
  store ptr %localesList, ptr %localesList.addr, align 8
  store ptr %status, ptr %status.addr, align 8
  %0 = load ptr, ptr %sc.addr, align 8
  %1 = load ptr, ptr %status.addr, align 8
  %call = call noundef ptr @_ZN6icu_759SpoofImpl12validateThisEP13USpoofCheckerR10UErrorCode(ptr noundef %0, ptr noundef nonnull align 4 dereferenceable(4) %1)
  store ptr %call, ptr %This, align 8
  %2 = load ptr, ptr %This, align 8
  %cmp = icmp eq ptr %2, null
  br i1 %cmp, label %if.then, label %if.end

if.then:                                          ; preds = %entry
  br label %return

if.end:                                           ; preds = %entry
  %3 = load ptr, ptr %This, align 8
  %4 = load ptr, ptr %localesList.addr, align 8
  %5 = load ptr, ptr %status.addr, align 8
  call void @_ZN6icu_759SpoofImpl17setAllowedLocalesEPKcR10UErrorCode(ptr noundef nonnull align 8 dereferenceable(44) %3, ptr noundef %4, ptr noundef nonnull align 4 dereferenceable(4) %5)
  br label %return

return:                                           ; preds = %if.end, %if.then
  ret void
}